; Function Attrs: mustprogress nofree norecurse nosync nounwind willreturn memory(readwrite, inaccessiblemem: none) uwtable
define internal noundef nonnull ptr @ast2obj_object(ptr readnone captures(none) %0, ptr readnone captures(none) %1, ptr noundef %2) #6 {
  %.not = icmp eq ptr %2, null
  %spec.store.select = select i1 %.not, ptr @_Py_NoneStruct, ptr %2
  %4 = load i32, ptr %spec.store.select, align 8, !tbaa !9
  %5 = icmp slt i32 %4, 0
  br i1 %5, label %_Py_NewRef.exit, label %6

6:                                                ; preds = %3
  %7 = add nuw i32 %4, 1
  store i32 %7, ptr %spec.store.select, align 8, !tbaa !9
  br label %_Py_NewRef.exit

_Py_NewRef.exit:                                  ; preds = %3, %6
  ret ptr %spec.store.select
}